target datalayout = "e-m:e-p270:32:32-p271:32:32-p272:64:64-i64:64-i128:128-f80:128-n8:16:32:64-S128"
target triple = "x86_64-pc-linux-gnu"

@.str.3 = private unnamed_addr constant [105 x i8] c"generated/home/dtcxzyw/WorkSpace/Projects/compilers/llvm-opt-benchmark/bench/hdf5/hdf5/src/H5FSsection.c\00", align 1
@H5E_FSPACE_g = external global i64, align 8
@__func__.H5FS_sect_remove = private unnamed_addr constant [17 x i8] c"H5FS_sect_remove\00", align 1
@H5E_CANTGET_g = external global i64, align 8
@.str.7 = private unnamed_addr constant [23 x i8] c"can't get section info\00", align 1
@H5E_CANTREMOVE_g = external global i64, align 8
@.str.8 = private unnamed_addr constant [21 x i8] c"can't remove section\00", align 1
@H5E_CANTRELEASE_g = external global i64, align 8
@.str.9 = private unnamed_addr constant [27 x i8] c"can't release section info\00", align 1

; Function Attrs: nounwind uwtable
define i32 @H5FS_sect_remove(ptr noundef %0, ptr noundef %1, ptr noundef %2) #0 {
  %4 = alloca ptr, align 8
  %5 = alloca ptr, align 8
  %6 = alloca ptr, align 8
  %7 = alloca i8, align 1
  %8 = alloca i32, align 4
  %9 = alloca i8, align 1
  store ptr %0, ptr %4, align 8
  store ptr %1, ptr %5, align 8
  store ptr %2, ptr %6, align 8
  store i8 0, ptr %7, align 1
  store i32 0, ptr %8, align 4
  store i8 0, ptr %9, align 1
  %10 = load ptr, ptr %4, align 8
  %11 = load ptr, ptr %5, align 8
  %12 = call i32 @H5FS__sinfo_lock(ptr noundef %10, ptr noundef %11, i32 noundef 0)
  %13 = icmp slt i32 %12, 0
  br i1 %13, label %14, label %29

14:                                               ; preds = %3
  br label %15

15:                                               ; preds = %14
  br label %16

16:                                               ; preds = %15
  br label %17

17:                                               ; preds = %16
  %18 = load i64, ptr @H5E_FSPACE_g, align 8
  %19 = load i64, ptr @H5E_CANTGET_g, align 8
  %20 = call i32 (ptr, ptr, i32, i64, i64, ptr, ...) @H5E_printf_stack(ptr noundef @.str.3, ptr noundef @__func__.H5FS_sect_remove, i32 noundef 892, i64 noundef %18, i64 noundef %19, ptr noundef @.str.7)
  br label %21

21:                                               ; preds = %17
  store i8 1, ptr %9, align 1
  %22 = load i8, ptr %9, align 1
  %23 = trunc i8 %22 to i1
  %24 = zext i1 %23 to i8
  store i8 %24, ptr %9, align 1
  br label %25

25:                                               ; preds = %21
  br label %26

26:                                               ; preds = %25
  store i32 -1, ptr %8, align 4
  br label %50

27:                                               ; No predecessors!
  br label %28

28:                                               ; preds = %27
  br label %29

29:                                               ; preds = %28, %3
  store i8 1, ptr %7, align 1
  %30 = load ptr, ptr %5, align 8
  %31 = load ptr, ptr %6, align 8
  %32 = call i32 @H5FS__sect_remove_real(ptr noundef %30, ptr noundef %31)
  %33 = icmp slt i32 %32, 0
  br i1 %33, label %34, label %49

34:                                               ; preds = %29
  br label %35

35:                                               ; preds = %34
  br label %36

36:                                               ; preds = %35
  br label %37

37:                                               ; preds = %36
  %38 = load i64, ptr @H5E_FSPACE_g, align 8
  %39 = load i64, ptr @H5E_CANTREMOVE_g, align 8
  %40 = call i32 (ptr, ptr, i32, i64, i64, ptr, ...) @H5E_printf_stack(ptr noundef @.str.3, ptr noundef @__func__.H5FS_sect_remove, i32 noundef 897, i64 noundef %38, i64 noundef %39, ptr noundef @.str.8)
  br label %41

41:                                               ; preds = %37
  store i8 1, ptr %9, align 1
  %42 = load i8, ptr %9, align 1
  %43 = trunc i8 %42 to i1
  %44 = zext i1 %43 to i8
  store i8 %44, ptr %9, align 1
  br label %45

45:                                               ; preds = %41
  br label %46

46:                                               ; preds = %45
  store i32 -1, ptr %8, align 4
  br label %50

47:                                               ; No predecessors!
  br label %48

48:                                               ; preds = %47
  br label %49

49:                                               ; preds = %48, %29
  br label %50

50:                                               ; preds = %49, %46, %26
  %51 = load i8, ptr %7, align 1
  %52 = trunc i8 %51 to i1
  br i1 %52, label %53, label %71

53:                                               ; preds = %50
  %54 = load ptr, ptr %4, align 8
  %55 = load ptr, ptr %5, align 8
  %56 = call i32 @H5FS__sinfo_unlock(ptr noundef %54, ptr noundef %55, i1 noundef zeroext true)
  %57 = icmp slt i32 %56, 0
  br i1 %57, label %58, label %71

58:                                               ; preds = %53
  br label %59

59:                                               ; preds = %58
  br label %60

60:                                               ; preds = %59
  br label %61

61:                                               ; preds = %60
  %62 = load i64, ptr @H5E_FSPACE_g, align 8
  %63 = load i64, ptr @H5E_CANTRELEASE_g, align 8
  %64 = call i32 (ptr, ptr, i32, i64, i64, ptr, ...) @H5E_printf_stack(ptr noundef @.str.3, ptr noundef @__func__.H5FS_sect_remove, i32 noundef 902, i64 noundef %62, i64 noundef %63, ptr noundef @.str.9)
  br label %65

65:                                               ; preds = %61
  store i8 1, ptr %9, align 1
  %66 = load i8, ptr %9, align 1
  %67 = trunc i8 %66 to i1
  %68 = zext i1 %67 to i8
  store i8 %68, ptr %9, align 1
  br label %69

69:                                               ; preds = %65
  store i32 -1, ptr %8, align 4
  br label %70

70:                                               ; preds = %69
  br label %71

71:                                               ; preds = %70, %53, %50
  %72 = load i32, ptr %8, align 4
  ret i32 %72
}