; Function Attrs: nounwind uwtable
define range(i32 -1, 1) i32 @H5FS_sect_remove(ptr noundef %0, ptr noundef %1, ptr noundef %2) local_unnamed_addr #0 {
  %4 = tail call fastcc i32 @H5FS__sinfo_lock(ptr noundef %0, ptr noundef %1, i32 noundef 0)
  %5 = icmp sgt i32 %4, -1
  br i1 %5, label %6, label %13

6:                                                ; preds = %3
  %7 = tail call fastcc i32 @H5FS__sect_remove_real(ptr noundef %1, ptr noundef %2)
  %8 = icmp slt i32 %7, 0
  br i1 %8, label %9, label %17

9:                                                ; preds = %6
  %10 = load i64, ptr @H5E_FSPACE_g, align 8
  %11 = load i64, ptr @H5E_CANTREMOVE_g, align 8
  %12 = tail call i32 (ptr, ptr, i32, i64, i64, ptr, ...) @H5E_printf_stack(ptr noundef nonnull @.str.3, ptr noundef nonnull @__func__.H5FS_sect_remove, i32 noundef 897, i64 noundef %10, i64 noundef %11, ptr noundef nonnull @.str.8) #6
  br label %17

13:                                               ; preds = %3
  %14 = load i64, ptr @H5E_FSPACE_g, align 8
  %15 = load i64, ptr @H5E_CANTGET_g, align 8
  %16 = tail call i32 (ptr, ptr, i32, i64, i64, ptr, ...) @H5E_printf_stack(ptr noundef nonnull @.str.3, ptr noundef nonnull @__func__.H5FS_sect_remove, i32 noundef 892, i64 noundef %14, i64 noundef %15, ptr noundef nonnull @.str.7) #6
  br label %24

17:                                               ; preds = %6, %9
  %.0.ph = phi i32 [ 0, %6 ], [ -1, %9 ]
  %18 = tail call fastcc i32 @H5FS__sinfo_unlock(ptr noundef %0, ptr noundef %1, i1 noundef zeroext true)
  %19 = icmp slt i32 %18, 0
  br i1 %19, label %20, label %24

20:                                               ; preds = %17
  %21 = load i64, ptr @H5E_FSPACE_g, align 8
  %22 = load i64, ptr @H5E_CANTRELEASE_g, align 8
  %23 = tail call i32 (ptr, ptr, i32, i64, i64, ptr, ...) @H5E_printf_stack(ptr noundef nonnull @.str.3, ptr noundef nonnull @__func__.H5FS_sect_remove, i32 noundef 902, i64 noundef %21, i64 noundef %22, ptr noundef nonnull @.str.9) #6
  br label %24

24:                                               ; preds = %13, %20, %17
  %.1 = phi i32 [ -1, %20 ], [ %.0.ph, %17 ], [ -1, %13 ]
  ret i32 %.1
}